; Function Attrs: mustprogress nofree nounwind uwtable
define void @_Z7ps_textP8t_psdataffRKNSt7__cxx1112basic_stringIcSt11char_traitsIcESaIcEEE(ptr noundef readonly captures(none) %0, float noundef %1, float noundef %2, ptr noundef nonnull readonly align 8 captures(none) dereferenceable(32) %3) local_unnamed_addr #8 {
  %5 = load ptr, ptr %0, align 8, !tbaa !9
  %6 = fpext float %1 to double
  %7 = fpext float %2 to double
  %8 = tail call i32 (ptr, ptr, ...) @fprintf(ptr noundef %5, ptr noundef nonnull @.str.37, double noundef %6, double noundef %7) #18
  %9 = load ptr, ptr %0, align 8, !tbaa !9
  %10 = load ptr, ptr %3, align 8, !tbaa !25
  %11 = tail call i32 (ptr, ptr, ...) @fprintf(ptr noundef %9, ptr noundef nonnull @.str.48, ptr noundef %10) #18
  ret void
}